; Function Attrs: nounwind uwtable
define ptr @l_Lean_Parser_resolveParserNameCore___lambda__3(ptr noundef %0, ptr noundef %1, ptr noundef %2, ptr noundef %3, ptr noundef %4, ptr readnone captures(none) %5) local_unnamed_addr #1 {
  %7 = ptrtoint ptr %0 to i64
  %8 = and i64 %7, 1
  %.not = icmp eq i64 %8, 0
  br i1 %.not, label %9, label %lean_inc.exit19

9:                                                ; preds = %6
  %.val.i = load i32, ptr %0, align 4, !tbaa !4
  %10 = icmp sgt i32 %.val.i, 0
  br i1 %10, label %11, label %13, !prof !11

11:                                               ; preds = %9
  %12 = add nuw i32 %.val.i, 1
  store i32 %12, ptr %0, align 4, !tbaa !4
  br label %17

13:                                               ; preds = %9
  %.not.i23 = icmp eq i32 %.val.i, 0
  br i1 %.not.i23, label %17, label %14

14:                                               ; preds = %13
  tail call void @lean_inc_ref_cold(ptr noundef nonnull %0) #6
  br label %17

lean_inc.exit19:                                  ; preds = %6
  %15 = tail call ptr @l_Lean_ResolveName_resolveGlobalName(ptr noundef %0, ptr noundef %1, ptr noundef %2, ptr noundef %3) #6
  %16 = load ptr, ptr @l_Lean_Parser_mkParserState___closed__1, align 8, !tbaa !9
  br label %lean_inc.exit

17:                                               ; preds = %14, %13, %11
  %18 = tail call ptr @l_Lean_ResolveName_resolveGlobalName(ptr noundef nonnull %0, ptr noundef %1, ptr noundef %2, ptr noundef %3) #6
  %19 = load ptr, ptr @l_Lean_Parser_mkParserState___closed__1, align 8, !tbaa !9
  %.val.i24 = load i32, ptr %0, align 4, !tbaa !4
  %20 = icmp sgt i32 %.val.i24, 0
  br i1 %20, label %21, label %23, !prof !11

21:                                               ; preds = %17
  %22 = add nuw i32 %.val.i24, 1
  store i32 %22, ptr %0, align 4, !tbaa !4
  br label %lean_inc.exit

23:                                               ; preds = %17
  %.not.i25 = icmp eq i32 %.val.i24, 0
  br i1 %.not.i25, label %lean_inc.exit, label %24

24:                                               ; preds = %23
  tail call void @lean_inc_ref_cold(ptr noundef nonnull %0) #6
  br label %lean_inc.exit

lean_inc.exit:                                    ; preds = %24, %23, %21, %lean_inc.exit19
  %25 = phi ptr [ %16, %lean_inc.exit19 ], [ %19, %21 ], [ %19, %23 ], [ %19, %24 ]
  %26 = phi ptr [ %15, %lean_inc.exit19 ], [ %18, %21 ], [ %18, %23 ], [ %18, %24 ]
  %27 = tail call ptr @l_List_filterMapTR_go___at_Lean_Parser_resolveParserNameCore___spec__2(ptr noundef %0, ptr noundef %26, ptr noundef %25)
  %28 = tail call zeroext i8 @l_List_isEmpty___rarg(ptr noundef %27) #6
  %29 = icmp eq i8 %28, 0
  br i1 %29, label %30, label %38

30:                                               ; preds = %lean_inc.exit
  br i1 %.not, label %31, label %lean_dec.exit20

31:                                               ; preds = %30
  %32 = load i32, ptr %0, align 4, !tbaa !4
  %33 = icmp sgt i32 %32, 1
  br i1 %33, label %34, label %36, !prof !11

34:                                               ; preds = %31
  %35 = add nsw i32 %32, -1
  store i32 %35, ptr %0, align 4, !tbaa !4
  br label %lean_dec.exit20

36:                                               ; preds = %31
  %.not.i = icmp eq i32 %32, 0
  br i1 %.not.i, label %lean_dec.exit20, label %37

37:                                               ; preds = %36
  tail call void @lean_dec_ref_cold(ptr noundef nonnull %0) #6
  br label %lean_dec.exit20

38:                                               ; preds = %lean_inc.exit
  %39 = ptrtoint ptr %27 to i64
  %40 = and i64 %39, 1
  %.not27 = icmp eq i64 %40, 0
  br i1 %.not27, label %41, label %lean_dec.exit

41:                                               ; preds = %38
  %42 = load i32, ptr %27, align 4, !tbaa !4
  %43 = icmp sgt i32 %42, 1
  br i1 %43, label %44, label %46, !prof !11

44:                                               ; preds = %41
  %45 = add nsw i32 %42, -1
  store i32 %45, ptr %27, align 4, !tbaa !4
  br label %lean_dec.exit

46:                                               ; preds = %41
  %.not.i21 = icmp eq i32 %42, 0
  br i1 %.not.i21, label %lean_dec.exit, label %47

47:                                               ; preds = %46
  tail call void @lean_dec_ref_cold(ptr noundef nonnull %27) #6
  br label %lean_dec.exit

lean_dec.exit:                                    ; preds = %47, %46, %44, %38
  %48 = tail call ptr @l_Lean_Parser_resolveParserNameCore___lambda__2(ptr noundef %0, ptr noundef %4, ptr noundef nonnull inttoptr (i64 1 to ptr), ptr nonnull poison)
  br label %lean_dec.exit20

lean_dec.exit20:                                  ; preds = %30, %34, %36, %37, %lean_dec.exit
  %.0 = phi ptr [ %48, %lean_dec.exit ], [ %27, %37 ], [ %27, %36 ], [ %27, %34 ], [ %27, %30 ]
  ret ptr %.0
}